target datalayout = "e-m:e-p270:32:32-p271:32:32-p272:64:64-i64:64-i128:128-f80:128-n8:16:32:64-S128"
target triple = "x86_64-pc-linux-gnu"

@.str.6 = private unnamed_addr constant [17 x i8] c"test_clear_error\00", align 1
@.str.7 = private unnamed_addr constant [26 x i8] c"../openssl/test/errtest.c\00", align 1
@.str.11 = private unnamed_addr constant [6 x i8] c"world\00", align 1
@.str.12 = private unnamed_addr constant [5 x i8] c"data\00", align 1
@.str.13 = private unnamed_addr constant [14 x i8] c"\22hello world\22\00", align 1
@.str.14 = private unnamed_addr constant [12 x i8] c"hello world\00", align 1
@.str.46 = private unnamed_addr constant [6 x i8] c"flags\00", align 1
@.str.47 = private unnamed_addr constant [34 x i8] c"ERR_TXT_STRING | ERR_TXT_MALLOCED\00", align 1
@.str.49 = private unnamed_addr constant [9 x i8] c"hello %s\00", align 1
@.str.50 = private unnamed_addr constant [3 x i8] c"\22\22\00", align 1
@.str.51 = private unnamed_addr constant [1 x i8] zeroinitializer, align 1
@.str.52 = private unnamed_addr constant [17 x i8] c"ERR_TXT_MALLOCED\00", align 1
@.str.53 = private unnamed_addr constant [17 x i8] c"goodbye %s world\00", align 1
@.str.54 = private unnamed_addr constant [6 x i8] c"cruel\00", align 1
@.str.55 = private unnamed_addr constant [22 x i8] c"\22goodbye cruel world\22\00", align 1
@.str.56 = private unnamed_addr constant [20 x i8] c"goodbye cruel world\00", align 1

; Function Attrs: nounwind uwtable
define internal i32 @test_clear_error() #0 {
  %1 = alloca i32, align 4
  %2 = alloca ptr, align 8
  %3 = alloca i32, align 4
  call void @llvm.lifetime.start.p0(i64 4, ptr %1) #8
  store i32 -1, ptr %1, align 4, !tbaa !4
  call void @llvm.lifetime.start.p0(i64 8, ptr %2) #8
  store ptr null, ptr %2, align 8, !tbaa !8
  call void @llvm.lifetime.start.p0(i64 4, ptr %3) #8
  store i32 0, ptr %3, align 4, !tbaa !4
  call void @ERR_new()
  call void @ERR_set_debug(ptr noundef @.str.7, i32 noundef 297, ptr noundef @.str.6)
  call void (i32, i32, ptr, ...) @ERR_set_error(i32 noundef 0, i32 noundef 0, ptr noundef @.str.49, ptr noundef @.str.11)
  %4 = call i64 @ERR_peek_error_data(ptr noundef %2, ptr noundef %1)
  %5 = load ptr, ptr %2, align 8, !tbaa !8
  %6 = call i32 @test_str_eq(ptr noundef @.str.7, i32 noundef 299, ptr noundef @.str.12, ptr noundef @.str.13, ptr noundef %5, ptr noundef @.str.14)
  %7 = icmp ne i32 %6, 0
  br i1 %7, label %8, label %12

8:                                                ; preds = %0
  %9 = load i32, ptr %1, align 4, !tbaa !4
  %10 = call i32 @test_int_eq(ptr noundef @.str.7, i32 noundef 300, ptr noundef @.str.46, ptr noundef @.str.47, i32 noundef %9, i32 noundef 3)
  %11 = icmp ne i32 %10, 0
  br i1 %11, label %13, label %12

12:                                               ; preds = %8, %0
  br label %44

13:                                               ; preds = %8
  call void @ERR_clear_error()
  call void @ERR_new()
  call void @ERR_set_debug(ptr noundef @.str.7, i32 noundef 305, ptr noundef @.str.6)
  call void (i32, i32, ptr, ...) @ERR_set_error(i32 noundef 0, i32 noundef 0, ptr noundef null)
  %14 = call i64 @ERR_peek_error_data(ptr noundef %2, ptr noundef %1)
  %15 = load ptr, ptr %2, align 8, !tbaa !8
  %16 = call i32 @test_str_eq(ptr noundef @.str.7, i32 noundef 307, ptr noundef @.str.12, ptr noundef @.str.50, ptr noundef %15, ptr noundef @.str.51)
  %17 = icmp ne i32 %16, 0
  br i1 %17, label %18, label %22

18:                                               ; preds = %13
  %19 = load i32, ptr %1, align 4, !tbaa !4
  %20 = call i32 @test_int_eq(ptr noundef @.str.7, i32 noundef 308, ptr noundef @.str.46, ptr noundef @.str.52, i32 noundef %19, i32 noundef 1)
  %21 = icmp ne i32 %20, 0
  br i1 %21, label %23, label %22

22:                                               ; preds = %18, %13
  br label %44

23:                                               ; preds = %18
  call void @ERR_clear_error()
  call void @ERR_new()
  call void @ERR_set_debug(ptr noundef @.str.7, i32 noundef 313, ptr noundef @.str.6)
  call void (i32, i32, ptr, ...) @ERR_set_error(i32 noundef 0, i32 noundef 0, ptr noundef @.str.53, ptr noundef @.str.54)
  %24 = call i64 @ERR_peek_error_data(ptr noundef %2, ptr noundef %1)
  %25 = load ptr, ptr %2, align 8, !tbaa !8
  %26 = call i32 @test_str_eq(ptr noundef @.str.7, i32 noundef 315, ptr noundef @.str.12, ptr noundef @.str.55, ptr noundef %25, ptr noundef @.str.56)
  %27 = icmp ne i32 %26, 0
  br i1 %27, label %28, label %32

28:                                               ; preds = %23
  %29 = load i32, ptr %1, align 4, !tbaa !4
  %30 = call i32 @test_int_eq(ptr noundef @.str.7, i32 noundef 316, ptr noundef @.str.46, ptr noundef @.str.47, i32 noundef %29, i32 noundef 3)
  %31 = icmp ne i32 %30, 0
  br i1 %31, label %33, label %32

32:                                               ; preds = %28, %23
  br label %44

33:                                               ; preds = %28
  call void @ERR_clear_error()
  call void @ERR_new()
  call void @ERR_set_debug(ptr noundef @.str.7, i32 noundef 324, ptr noundef @.str.6)
  call void (i32, i32, ptr, ...) @ERR_set_error(i32 noundef 0, i32 noundef 0, ptr noundef null)
  %34 = call i64 @ERR_peek_error_data(ptr noundef %2, ptr noundef %1)
  %35 = load ptr, ptr %2, align 8, !tbaa !8
  %36 = call i32 @test_str_eq(ptr noundef @.str.7, i32 noundef 326, ptr noundef @.str.12, ptr noundef @.str.50, ptr noundef %35, ptr noundef @.str.51)
  %37 = icmp ne i32 %36, 0
  br i1 %37, label %38, label %42

38:                                               ; preds = %33
  %39 = load i32, ptr %1, align 4, !tbaa !4
  %40 = call i32 @test_int_eq(ptr noundef @.str.7, i32 noundef 327, ptr noundef @.str.46, ptr noundef @.str.52, i32 noundef %39, i32 noundef 1)
  %41 = icmp ne i32 %40, 0
  br i1 %41, label %43, label %42

42:                                               ; preds = %38, %33
  br label %44

43:                                               ; preds = %38
  call void @ERR_clear_error()
  store i32 1, ptr %3, align 4, !tbaa !4
  br label %44

44:                                               ; preds = %43, %42, %32, %22, %12
  call void @ERR_clear_error()
  %45 = load i32, ptr %3, align 4, !tbaa !4
  call void @llvm.lifetime.end.p0(i64 4, ptr %3) #8
  call void @llvm.lifetime.end.p0(i64 8, ptr %2) #8
  call void @llvm.lifetime.end.p0(i64 4, ptr %1) #8
  ret i32 %45
}