; Function Attrs: nounwind uwtable
define internal range(i32 0, 2) i32 @test_clear_error() #0 {
  %1 = alloca i32, align 4
  %2 = alloca ptr, align 8
  call void @llvm.lifetime.start.p0(i64 4, ptr nonnull %1) #6
  store i32 -1, ptr %1, align 4, !tbaa !4
  call void @llvm.lifetime.start.p0(i64 8, ptr nonnull %2) #6
  store ptr null, ptr %2, align 8, !tbaa !8
  tail call void @ERR_new() #6
  tail call void @ERR_set_debug(ptr noundef nonnull @.str.7, i32 noundef 297, ptr noundef nonnull @.str.6) #6
  tail call void (i32, i32, ptr, ...) @ERR_set_error(i32 noundef 0, i32 noundef 0, ptr noundef nonnull @.str.49, ptr noundef nonnull @.str.11) #6
  %3 = call i64 @ERR_peek_error_data(ptr noundef nonnull %2, ptr noundef nonnull %1) #6
  %4 = load ptr, ptr %2, align 8, !tbaa !8
  %5 = call i32 @test_str_eq(ptr noundef nonnull @.str.7, i32 noundef 299, ptr noundef nonnull @.str.12, ptr noundef nonnull @.str.13, ptr noundef %4, ptr noundef nonnull @.str.14) #6
  %.not = icmp eq i32 %5, 0
  br i1 %.not, label %31, label %6

6:                                                ; preds = %0
  %7 = load i32, ptr %1, align 4, !tbaa !4
  %8 = call i32 @test_int_eq(ptr noundef nonnull @.str.7, i32 noundef 300, ptr noundef nonnull @.str.46, ptr noundef nonnull @.str.47, i32 noundef %7, i32 noundef 3) #6
  %.not1 = icmp eq i32 %8, 0
  br i1 %.not1, label %31, label %9

9:                                                ; preds = %6
  call void @ERR_clear_error() #6
  call void @ERR_new() #6
  call void @ERR_set_debug(ptr noundef nonnull @.str.7, i32 noundef 305, ptr noundef nonnull @.str.6) #6
  call void (i32, i32, ptr, ...) @ERR_set_error(i32 noundef 0, i32 noundef 0, ptr noundef null) #6
  %10 = call i64 @ERR_peek_error_data(ptr noundef nonnull %2, ptr noundef nonnull %1) #6
  %11 = load ptr, ptr %2, align 8, !tbaa !8
  %12 = call i32 @test_str_eq(ptr noundef nonnull @.str.7, i32 noundef 307, ptr noundef nonnull @.str.12, ptr noundef nonnull @.str.50, ptr noundef %11, ptr noundef nonnull @.str.51) #6
  %.not2 = icmp eq i32 %12, 0
  br i1 %.not2, label %31, label %13

13:                                               ; preds = %9
  %14 = load i32, ptr %1, align 4, !tbaa !4
  %15 = call i32 @test_int_eq(ptr noundef nonnull @.str.7, i32 noundef 308, ptr noundef nonnull @.str.46, ptr noundef nonnull @.str.52, i32 noundef %14, i32 noundef 1) #6
  %.not3 = icmp eq i32 %15, 0
  br i1 %.not3, label %31, label %16

16:                                               ; preds = %13
  call void @ERR_clear_error() #6
  call void @ERR_new() #6
  call void @ERR_set_debug(ptr noundef nonnull @.str.7, i32 noundef 313, ptr noundef nonnull @.str.6) #6
  call void (i32, i32, ptr, ...) @ERR_set_error(i32 noundef 0, i32 noundef 0, ptr noundef nonnull @.str.53, ptr noundef nonnull @.str.54) #6
  %17 = call i64 @ERR_peek_error_data(ptr noundef nonnull %2, ptr noundef nonnull %1) #6
  %18 = load ptr, ptr %2, align 8, !tbaa !8
  %19 = call i32 @test_str_eq(ptr noundef nonnull @.str.7, i32 noundef 315, ptr noundef nonnull @.str.12, ptr noundef nonnull @.str.55, ptr noundef %18, ptr noundef nonnull @.str.56) #6
  %.not4 = icmp eq i32 %19, 0
  br i1 %.not4, label %31, label %20

20:                                               ; preds = %16
  %21 = load i32, ptr %1, align 4, !tbaa !4
  %22 = call i32 @test_int_eq(ptr noundef nonnull @.str.7, i32 noundef 316, ptr noundef nonnull @.str.46, ptr noundef nonnull @.str.47, i32 noundef %21, i32 noundef 3) #6
  %.not5 = icmp eq i32 %22, 0
  br i1 %.not5, label %31, label %23

23:                                               ; preds = %20
  call void @ERR_clear_error() #6
  call void @ERR_new() #6
  call void @ERR_set_debug(ptr noundef nonnull @.str.7, i32 noundef 324, ptr noundef nonnull @.str.6) #6
  call void (i32, i32, ptr, ...) @ERR_set_error(i32 noundef 0, i32 noundef 0, ptr noundef null) #6
  %24 = call i64 @ERR_peek_error_data(ptr noundef nonnull %2, ptr noundef nonnull %1) #6
  %25 = load ptr, ptr %2, align 8, !tbaa !8
  %26 = call i32 @test_str_eq(ptr noundef nonnull @.str.7, i32 noundef 326, ptr noundef nonnull @.str.12, ptr noundef nonnull @.str.50, ptr noundef %25, ptr noundef nonnull @.str.51) #6
  %.not6 = icmp eq i32 %26, 0
  br i1 %.not6, label %31, label %27

27:                                               ; preds = %23
  %28 = load i32, ptr %1, align 4, !tbaa !4
  %29 = call i32 @test_int_eq(ptr noundef nonnull @.str.7, i32 noundef 327, ptr noundef nonnull @.str.46, ptr noundef nonnull @.str.52, i32 noundef %28, i32 noundef 1) #6
  %.not7 = icmp eq i32 %29, 0
  br i1 %.not7, label %31, label %30

30:                                               ; preds = %27
  call void @ERR_clear_error() #6
  br label %31

31:                                               ; preds = %23, %27, %16, %20, %9, %13, %0, %6, %30
  %.0 = phi i32 [ 1, %30 ], [ 0, %27 ], [ 0, %23 ], [ 0, %20 ], [ 0, %16 ], [ 0, %13 ], [ 0, %9 ], [ 0, %6 ], [ 0, %0 ]
  call void @ERR_clear_error() #6
  call void @llvm.lifetime.end.p0(i64 8, ptr nonnull %2) #6
  call void @llvm.lifetime.end.p0(i64 4, ptr nonnull %1) #6
  ret i32 %.0
}